target datalayout = "e-m:e-p270:32:32-p271:32:32-p272:64:64-i64:64-i128:128-f80:128-n8:16:32:64-S128"
target triple = "x86_64-pc-linux-gnu"

%"struct.duckdb_miniz::mz_stream_s" = type { ptr, i32, i64, ptr, i32, i64, ptr, ptr, ptr, ptr, ptr, i32, i64, i64 }
%"struct.duckdb_miniz::tdefl_compressor" = type { ptr, ptr, i32, [2 x i32], i32, i32, i32, i32, i32, ptr, ptr, ptr, ptr, i32, i32, i32, i32, i32, i32, i32, i32, i32, i32, i32, i32, i32, i32, ptr, ptr, ptr, ptr, i32, ptr, i64, i64, [33025 x i8], [3 x [288 x i16]], [3 x [288 x i16]], [3 x [288 x i8]], [65536 x i8], [32768 x i16], [32768 x i16], [85196 x i8] }

; Function Attrs: mustprogress nounwind uwtable
define noundef i32 @_ZN12duckdb_miniz17tdefl_get_adler32EPNS_16tdefl_compressorE(ptr noundef %0) #0 {
  %2 = alloca ptr, align 8
  store ptr %0, ptr %2, align 8, !tbaa !19
  %3 = load ptr, ptr %2, align 8, !tbaa !19
  %4 = getelementptr inbounds nuw %"struct.duckdb_miniz::tdefl_compressor", ptr %3, i32 0, i32 5
  %5 = load i32, ptr %4, align 8, !tbaa !63
  ret i32 %5
}

; Function Attrs: mustprogress uwtable
define noundef i32 @_ZN12duckdb_miniz10mz_deflateEPNS_11mz_stream_sEi(ptr noundef %0, i32 noundef %1) #5 {
  %3 = alloca i32, align 4
  %4 = alloca ptr, align 8
  %5 = alloca i32, align 4
  %6 = alloca i64, align 8
  %7 = alloca i64, align 8
  %8 = alloca i64, align 8
  %9 = alloca i64, align 8
  %10 = alloca i32, align 4
  %11 = alloca i32, align 4
  %12 = alloca i32, align 4
  store ptr %0, ptr %4, align 8, !tbaa !20
  store i32 %1, ptr %5, align 4, !tbaa !10
  call void @llvm.lifetime.start.p0(i64 8, ptr %6) #11
  call void @llvm.lifetime.start.p0(i64 8, ptr %7) #11
  call void @llvm.lifetime.start.p0(i64 8, ptr %8) #11
  call void @llvm.lifetime.start.p0(i64 8, ptr %9) #11
  call void @llvm.lifetime.start.p0(i64 4, ptr %10) #11
  store i32 0, ptr %10, align 4, !tbaa !10
  %13 = load ptr, ptr %4, align 8, !tbaa !20
  %14 = icmp ne ptr %13, null
  br i1 %14, label %15, label %31

15:                                               ; preds = %2
  %16 = load ptr, ptr %4, align 8, !tbaa !20
  %17 = getelementptr inbounds nuw %"struct.duckdb_miniz::mz_stream_s", ptr %16, i32 0, i32 7
  %18 = load ptr, ptr %17, align 8, !tbaa !33
  %19 = icmp ne ptr %18, null
  br i1 %19, label %20, label %31

20:                                               ; preds = %15
  %21 = load i32, ptr %5, align 4, !tbaa !10
  %22 = icmp slt i32 %21, 0
  br i1 %22, label %31, label %23

23:                                               ; preds = %20
  %24 = load i32, ptr %5, align 4, !tbaa !10
  %25 = icmp sgt i32 %24, 4
  br i1 %25, label %31, label %26

26:                                               ; preds = %23
  %27 = load ptr, ptr %4, align 8, !tbaa !20
  %28 = getelementptr inbounds nuw %"struct.duckdb_miniz::mz_stream_s", ptr %27, i32 0, i32 3
  %29 = load ptr, ptr %28, align 8, !tbaa !72
  %30 = icmp ne ptr %29, null
  br i1 %30, label %32, label %31

31:                                               ; preds = %26, %23, %20, %15, %2
  store i32 -2, ptr %3, align 4
  store i32 1, ptr %11, align 4
  br label %174

32:                                               ; preds = %26
  %33 = load ptr, ptr %4, align 8, !tbaa !20
  %34 = getelementptr inbounds nuw %"struct.duckdb_miniz::mz_stream_s", ptr %33, i32 0, i32 4
  %35 = load i32, ptr %34, align 8, !tbaa !73
  %36 = icmp ne i32 %35, 0
  br i1 %36, label %38, label %37

37:                                               ; preds = %32
  store i32 -5, ptr %3, align 4
  store i32 1, ptr %11, align 4
  br label %174

38:                                               ; preds = %32
  %39 = load i32, ptr %5, align 4, !tbaa !10
  %40 = icmp eq i32 %39, 1
  br i1 %40, label %41, label %42

41:                                               ; preds = %38
  store i32 2, ptr %5, align 4, !tbaa !10
  br label %42

42:                                               ; preds = %41, %38
  %43 = load ptr, ptr %4, align 8, !tbaa !20
  %44 = getelementptr inbounds nuw %"struct.duckdb_miniz::mz_stream_s", ptr %43, i32 0, i32 7
  %45 = load ptr, ptr %44, align 8, !tbaa !33
  %46 = getelementptr inbounds nuw %"struct.duckdb_miniz::tdefl_compressor", ptr %45, i32 0, i32 26
  %47 = load i32, ptr %46, align 4, !tbaa !59
  %48 = icmp eq i32 %47, 1
  br i1 %48, label %49, label %53

49:                                               ; preds = %42
  %50 = load i32, ptr %5, align 4, !tbaa !10
  %51 = icmp eq i32 %50, 4
  %52 = select i1 %51, i32 1, i32 -5
  store i32 %52, ptr %3, align 4
  store i32 1, ptr %11, align 4
  br label %174

53:                                               ; preds = %42
  %54 = load ptr, ptr %4, align 8, !tbaa !20
  %55 = getelementptr inbounds nuw %"struct.duckdb_miniz::mz_stream_s", ptr %54, i32 0, i32 2
  %56 = load i64, ptr %55, align 8, !tbaa !28
  store i64 %56, ptr %8, align 8, !tbaa !3
  %57 = load ptr, ptr %4, align 8, !tbaa !20
  %58 = getelementptr inbounds nuw %"struct.duckdb_miniz::mz_stream_s", ptr %57, i32 0, i32 5
  %59 = load i64, ptr %58, align 8, !tbaa !29
  store i64 %59, ptr %9, align 8, !tbaa !3
  br label %60

60:                                               ; preds = %171, %53
  call void @llvm.lifetime.start.p0(i64 4, ptr %12) #11
  %61 = load ptr, ptr %4, align 8, !tbaa !20
  %62 = getelementptr inbounds nuw %"struct.duckdb_miniz::mz_stream_s", ptr %61, i32 0, i32 1
  %63 = load i32, ptr %62, align 8, !tbaa !74
  %64 = zext i32 %63 to i64
  store i64 %64, ptr %6, align 8, !tbaa !3
  %65 = load ptr, ptr %4, align 8, !tbaa !20
  %66 = getelementptr inbounds nuw %"struct.duckdb_miniz::mz_stream_s", ptr %65, i32 0, i32 4
  %67 = load i32, ptr %66, align 8, !tbaa !73
  %68 = zext i32 %67 to i64
  store i64 %68, ptr %7, align 8, !tbaa !3
  %69 = load ptr, ptr %4, align 8, !tbaa !20
  %70 = getelementptr inbounds nuw %"struct.duckdb_miniz::mz_stream_s", ptr %69, i32 0, i32 7
  %71 = load ptr, ptr %70, align 8, !tbaa !33
  %72 = load ptr, ptr %4, align 8, !tbaa !20
  %73 = getelementptr inbounds nuw %"struct.duckdb_miniz::mz_stream_s", ptr %72, i32 0, i32 0
  %74 = load ptr, ptr %73, align 8, !tbaa !75
  %75 = load ptr, ptr %4, align 8, !tbaa !20
  %76 = getelementptr inbounds nuw %"struct.duckdb_miniz::mz_stream_s", ptr %75, i32 0, i32 3
  %77 = load ptr, ptr %76, align 8, !tbaa !72
  %78 = load i32, ptr %5, align 4, !tbaa !10
  %79 = call noundef i32 @_ZN12duckdb_miniz14tdefl_compressEPNS_16tdefl_compressorEPKvPmPvS4_NS_11tdefl_flushE(ptr noundef %71, ptr noundef %74, ptr noundef %6, ptr noundef %77, ptr noundef %7, i32 noundef %78)
  store i32 %79, ptr %12, align 4, !tbaa !76
  %80 = load i64, ptr %6, align 8, !tbaa !3
  %81 = trunc i64 %80 to i32
  %82 = load ptr, ptr %4, align 8, !tbaa !20
  %83 = getelementptr inbounds nuw %"struct.duckdb_miniz::mz_stream_s", ptr %82, i32 0, i32 0
  %84 = load ptr, ptr %83, align 8, !tbaa !75
  %85 = zext i32 %81 to i64
  %86 = getelementptr inbounds nuw i8, ptr %84, i64 %85
  store ptr %86, ptr %83, align 8, !tbaa !75
  %87 = load i64, ptr %6, align 8, !tbaa !3
  %88 = trunc i64 %87 to i32
  %89 = load ptr, ptr %4, align 8, !tbaa !20
  %90 = getelementptr inbounds nuw %"struct.duckdb_miniz::mz_stream_s", ptr %89, i32 0, i32 1
  %91 = load i32, ptr %90, align 8, !tbaa !74
  %92 = sub i32 %91, %88
  store i32 %92, ptr %90, align 8, !tbaa !74
  %93 = load i64, ptr %6, align 8, !tbaa !3
  %94 = trunc i64 %93 to i32
  %95 = zext i32 %94 to i64
  %96 = load ptr, ptr %4, align 8, !tbaa !20
  %97 = getelementptr inbounds nuw %"struct.duckdb_miniz::mz_stream_s", ptr %96, i32 0, i32 2
  %98 = load i64, ptr %97, align 8, !tbaa !28
  %99 = add i64 %98, %95
  store i64 %99, ptr %97, align 8, !tbaa !28
  %100 = load ptr, ptr %4, align 8, !tbaa !20
  %101 = getelementptr inbounds nuw %"struct.duckdb_miniz::mz_stream_s", ptr %100, i32 0, i32 7
  %102 = load ptr, ptr %101, align 8, !tbaa !33
  %103 = call noundef i32 @_ZN12duckdb_miniz17tdefl_get_adler32EPNS_16tdefl_compressorE(ptr noundef %102)
  %104 = zext i32 %103 to i64
  %105 = load ptr, ptr %4, align 8, !tbaa !20
  %106 = getelementptr inbounds nuw %"struct.duckdb_miniz::mz_stream_s", ptr %105, i32 0, i32 12
  store i64 %104, ptr %106, align 8, !tbaa !25
  %107 = load i64, ptr %7, align 8, !tbaa !3
  %108 = trunc i64 %107 to i32
  %109 = load ptr, ptr %4, align 8, !tbaa !20
  %110 = getelementptr inbounds nuw %"struct.duckdb_miniz::mz_stream_s", ptr %109, i32 0, i32 3
  %111 = load ptr, ptr %110, align 8, !tbaa !72
  %112 = zext i32 %108 to i64
  %113 = getelementptr inbounds nuw i8, ptr %111, i64 %112
  store ptr %113, ptr %110, align 8, !tbaa !72
  %114 = load i64, ptr %7, align 8, !tbaa !3
  %115 = trunc i64 %114 to i32
  %116 = load ptr, ptr %4, align 8, !tbaa !20
  %117 = getelementptr inbounds nuw %"struct.duckdb_miniz::mz_stream_s", ptr %116, i32 0, i32 4
  %118 = load i32, ptr %117, align 8, !tbaa !73
  %119 = sub i32 %118, %115
  store i32 %119, ptr %117, align 8, !tbaa !73
  %120 = load i64, ptr %7, align 8, !tbaa !3
  %121 = trunc i64 %120 to i32
  %122 = zext i32 %121 to i64
  %123 = load ptr, ptr %4, align 8, !tbaa !20
  %124 = getelementptr inbounds nuw %"struct.duckdb_miniz::mz_stream_s", ptr %123, i32 0, i32 5
  %125 = load i64, ptr %124, align 8, !tbaa !29
  %126 = add i64 %125, %122
  store i64 %126, ptr %124, align 8, !tbaa !29
  %127 = load i32, ptr %12, align 4, !tbaa !76
  %128 = icmp slt i32 %127, 0
  br i1 %128, label %129, label %130

129:                                              ; preds = %60
  store i32 -2, ptr %10, align 4, !tbaa !10
  store i32 2, ptr %11, align 4
  br label %169

130:                                              ; preds = %60
  %131 = load i32, ptr %12, align 4, !tbaa !76
  %132 = icmp eq i32 %131, 1
  br i1 %132, label %133, label %134

133:                                              ; preds = %130
  store i32 1, ptr %10, align 4, !tbaa !10
  store i32 2, ptr %11, align 4
  br label %169

134:                                              ; preds = %130
  %135 = load ptr, ptr %4, align 8, !tbaa !20
  %136 = getelementptr inbounds nuw %"struct.duckdb_miniz::mz_stream_s", ptr %135, i32 0, i32 4
  %137 = load i32, ptr %136, align 8, !tbaa !73
  %138 = icmp ne i32 %137, 0
  br i1 %138, label %140, label %139

139:                                              ; preds = %134
  store i32 2, ptr %11, align 4
  br label %169

140:                                              ; preds = %134
  %141 = load ptr, ptr %4, align 8, !tbaa !20
  %142 = getelementptr inbounds nuw %"struct.duckdb_miniz::mz_stream_s", ptr %141, i32 0, i32 1
  %143 = load i32, ptr %142, align 8, !tbaa !74
  %144 = icmp ne i32 %143, 0
  br i1 %144, label %165, label %145

145:                                              ; preds = %140
  %146 = load i32, ptr %5, align 4, !tbaa !10
  %147 = icmp ne i32 %146, 4
  br i1 %147, label %148, label %165

148:                                              ; preds = %145
  %149 = load i32, ptr %5, align 4, !tbaa !10
  %150 = icmp ne i32 %149, 0
  br i1 %150, label %163, label %151

151:                                              ; preds = %148
  %152 = load ptr, ptr %4, align 8, !tbaa !20
  %153 = getelementptr inbounds nuw %"struct.duckdb_miniz::mz_stream_s", ptr %152, i32 0, i32 2
  %154 = load i64, ptr %153, align 8, !tbaa !28
  %155 = load i64, ptr %8, align 8, !tbaa !3
  %156 = icmp ne i64 %154, %155
  br i1 %156, label %163, label %157

157:                                              ; preds = %151
  %158 = load ptr, ptr %4, align 8, !tbaa !20
  %159 = getelementptr inbounds nuw %"struct.duckdb_miniz::mz_stream_s", ptr %158, i32 0, i32 5
  %160 = load i64, ptr %159, align 8, !tbaa !29
  %161 = load i64, ptr %9, align 8, !tbaa !3
  %162 = icmp ne i64 %160, %161
  br i1 %162, label %163, label %164

163:                                              ; preds = %157, %151, %148
  store i32 2, ptr %11, align 4
  br label %169

164:                                              ; preds = %157
  store i32 -5, ptr %3, align 4
  store i32 1, ptr %11, align 4
  br label %169

165:                                              ; preds = %145, %140
  br label %166

166:                                              ; preds = %165
  br label %167

167:                                              ; preds = %166
  br label %168

168:                                              ; preds = %167
  store i32 0, ptr %11, align 4
  br label %169

169:                                              ; preds = %168, %164, %163, %139, %133, %129
  call void @llvm.lifetime.end.p0(i64 4, ptr %12) #11
  %170 = load i32, ptr %11, align 4
  switch i32 %170, label %174 [
    i32 0, label %171
    i32 2, label %172
  ]

171:                                              ; preds = %169
  br label %60, !llvm.loop !77

172:                                              ; preds = %169
  %173 = load i32, ptr %10, align 4, !tbaa !10
  store i32 %173, ptr %3, align 4
  store i32 1, ptr %11, align 4
  br label %174

174:                                              ; preds = %172, %169, %49, %37, %31
  call void @llvm.lifetime.end.p0(i64 4, ptr %10) #11
  call void @llvm.lifetime.end.p0(i64 8, ptr %9) #11
  call void @llvm.lifetime.end.p0(i64 8, ptr %8) #11
  call void @llvm.lifetime.end.p0(i64 8, ptr %7) #11
  call void @llvm.lifetime.end.p0(i64 8, ptr %6) #11
  %175 = load i32, ptr %3, align 4
  ret i32 %175
}